target datalayout = "e-m:e-p270:32:32-p271:32:32-p272:64:64-i64:64-i128:128-f80:128-n8:16:32:64-S128"
target triple = "x86_64-pc-linux-gnu"

%"struct.Yosys::RTLIL::IdString" = type { i32 }
%"class.std::vector.3" = type { %"struct.std::_Vector_base.4" }
%"struct.std::_Vector_base.4" = type { %"struct.std::_Vector_base<int, std::allocator<int>>::_Vector_impl" }
%"struct.std::_Vector_base<int, std::allocator<int>>::_Vector_impl" = type { %"struct.std::_Vector_base<int, std::allocator<int>>::_Vector_impl_data" }
%"struct.std::_Vector_base<int, std::allocator<int>>::_Vector_impl_data" = type { ptr, ptr, ptr }
%"struct.Yosys::RTLIL::AttrObject" = type { %"class.Yosys::hashlib::dict.49" }
%"class.Yosys::hashlib::dict.49" = type <{ %"class.std::vector.3", %"class.std::vector.50", [8 x i8] }>
%"class.std::vector.50" = type { %"struct.std::_Vector_base.51" }
%"struct.std::_Vector_base.51" = type { %"struct.std::_Vector_base<Yosys::hashlib::dict<Yosys::RTLIL::IdString, Yosys::RTLIL::Const>::entry_t, std::allocator<Yosys::hashlib::dict<Yosys::RTLIL::IdString, Yosys::RTLIL::Const>::entry_t>>::_Vector_impl" }
%"struct.std::_Vector_base<Yosys::hashlib::dict<Yosys::RTLIL::IdString, Yosys::RTLIL::Const>::entry_t, std::allocator<Yosys::hashlib::dict<Yosys::RTLIL::IdString, Yosys::RTLIL::Const>::entry_t>>::_Vector_impl" = type { %"struct.std::_Vector_base<Yosys::hashlib::dict<Yosys::RTLIL::IdString, Yosys::RTLIL::Const>::entry_t, std::allocator<Yosys::hashlib::dict<Yosys::RTLIL::IdString, Yosys::RTLIL::Const>::entry_t>>::_Vector_impl_data" }
%"struct.std::_Vector_base<Yosys::hashlib::dict<Yosys::RTLIL::IdString, Yosys::RTLIL::Const>::entry_t, std::allocator<Yosys::hashlib::dict<Yosys::RTLIL::IdString, Yosys::RTLIL::Const>::entry_t>>::_Vector_impl_data" = type { ptr, ptr, ptr }
%"class.Yosys::hashlib::pool.308" = type <{ %"class.std::vector.3", %"class.std::vector.309", [8 x i8] }>
%"class.std::vector.309" = type { %"struct.std::_Vector_base.310" }
%"struct.std::_Vector_base.310" = type { %"struct.std::_Vector_base<Yosys::hashlib::pool<std::__cxx11::basic_string<char>>::entry_t, std::allocator<Yosys::hashlib::pool<std::__cxx11::basic_string<char>>::entry_t>>::_Vector_impl" }
%"struct.std::_Vector_base<Yosys::hashlib::pool<std::__cxx11::basic_string<char>>::entry_t, std::allocator<Yosys::hashlib::pool<std::__cxx11::basic_string<char>>::entry_t>>::_Vector_impl" = type { %"struct.std::_Vector_base<Yosys::hashlib::pool<std::__cxx11::basic_string<char>>::entry_t, std::allocator<Yosys::hashlib::pool<std::__cxx11::basic_string<char>>::entry_t>>::_Vector_impl_data" }
%"struct.std::_Vector_base<Yosys::hashlib::pool<std::__cxx11::basic_string<char>>::entry_t, std::allocator<Yosys::hashlib::pool<std::__cxx11::basic_string<char>>::entry_t>>::_Vector_impl_data" = type { ptr, ptr, ptr }

@_ZN5Yosys5RTLIL2ID3srcE = external global %"struct.Yosys::RTLIL::IdString", align 4

; Function Attrs: mustprogress uwtable
define linkonce_odr noundef nonnull align 8 dereferenceable(49) ptr @_ZN5Yosys7hashlib4dictINS_5RTLIL8IdStringENS2_5ConstENS0_8hash_opsIS3_EEEaSERKS7_(ptr noundef nonnull align 8 dereferenceable(49) %0, ptr noundef nonnull align 8 dereferenceable(49) %1) #4 comdat align 2 {
  %3 = alloca ptr, align 8
  %4 = alloca ptr, align 8
  store ptr %0, ptr %3, align 8, !tbaa !864
  store ptr %1, ptr %4, align 8, !tbaa !864
  %5 = load ptr, ptr %3, align 8
  %6 = load ptr, ptr %4, align 8, !tbaa !864
  %7 = getelementptr inbounds nuw %"class.Yosys::hashlib::dict.49", ptr %6, i32 0, i32 1
  %8 = getelementptr inbounds nuw %"class.Yosys::hashlib::dict.49", ptr %5, i32 0, i32 1
  %9 = call noundef nonnull align 8 dereferenceable(24) ptr @_ZNSt6vectorIN5Yosys7hashlib4dictINS0_5RTLIL8IdStringENS3_5ConstENS1_8hash_opsIS4_EEE7entry_tESaIS9_EEaSERKSB_(ptr noundef nonnull align 8 dereferenceable(24) %8, ptr noundef nonnull align 8 dereferenceable(24) %7)
  call void @_ZN5Yosys7hashlib4dictINS_5RTLIL8IdStringENS2_5ConstENS0_8hash_opsIS3_EEE9do_rehashEv(ptr noundef nonnull align 8 dereferenceable(49) %5)
  ret ptr %5
}

; Function Attrs: mustprogress uwtable
define internal void @_ZN12_GLOBAL__N_111apply_attrsEPN5Yosys5RTLIL4CellEPKNS1_10SwitchRuleEPKNS1_8CaseRuleE(ptr noundef %0, ptr noundef %1, ptr noundef %2) #4 personality ptr @__gxx_personality_v0 {
  %4 = alloca ptr, align 8
  %5 = alloca ptr, align 8
  %6 = alloca ptr, align 8
  %7 = alloca %"class.Yosys::hashlib::pool.308", align 8
  %8 = alloca ptr, align 8
  %9 = alloca i32, align 4
  store ptr %0, ptr %4, align 8, !tbaa !200
  store ptr %1, ptr %5, align 8, !tbaa !173
  store ptr %2, ptr %6, align 8, !tbaa !165
  %10 = load ptr, ptr %5, align 8, !tbaa !173
  %11 = getelementptr inbounds nuw %"struct.Yosys::RTLIL::AttrObject", ptr %10, i32 0, i32 0
  %12 = load ptr, ptr %4, align 8, !tbaa !200
  %13 = getelementptr inbounds nuw %"struct.Yosys::RTLIL::AttrObject", ptr %12, i32 0, i32 0
  %14 = call noundef nonnull align 8 dereferenceable(49) ptr @_ZN5Yosys7hashlib4dictINS_5RTLIL8IdStringENS2_5ConstENS0_8hash_opsIS3_EEEaSERKS7_(ptr noundef nonnull align 8 dereferenceable(49) %13, ptr noundef nonnull align 8 dereferenceable(49) %11)
  %15 = load ptr, ptr %4, align 8, !tbaa !200
  call void @llvm.lifetime.start.p0(i64 56, ptr %7) #3
  %16 = load ptr, ptr %6, align 8, !tbaa !165
  call void @_ZNK5Yosys5RTLIL10AttrObject21get_strpool_attributeB5cxx11ERKNS0_8IdStringE(ptr dead_on_unwind writable sret(%"class.Yosys::hashlib::pool.308") align 8 %7, ptr noundef nonnull align 8 dereferenceable(56) %16, ptr noundef nonnull align 4 dereferenceable(4) @_ZN5Yosys5RTLIL2ID3srcE)
  invoke void @_ZN5Yosys5RTLIL10AttrObject21add_strpool_attributeERKNS0_8IdStringERKNS_7hashlib4poolINSt7__cxx1112basic_stringIcSt11char_traitsIcESaIcEEENS5_8hash_opsISC_EEEE(ptr noundef nonnull align 8 dereferenceable(56) %15, ptr noundef nonnull align 4 dereferenceable(4) @_ZN5Yosys5RTLIL2ID3srcE, ptr noundef nonnull align 8 dereferenceable(49) %7)
          to label %17 unwind label %18

17:                                               ; preds = %3
  call void @_ZN5Yosys7hashlib4poolINSt7__cxx1112basic_stringIcSt11char_traitsIcESaIcEEENS0_8hash_opsIS7_EEED2Ev(ptr noundef nonnull align 8 dereferenceable(49) %7) #3
  call void @llvm.lifetime.end.p0(i64 56, ptr %7) #3
  ret void

18:                                               ; preds = %3
  %19 = landingpad { ptr, i32 }
          cleanup
  %20 = extractvalue { ptr, i32 } %19, 0
  store ptr %20, ptr %8, align 8
  %21 = extractvalue { ptr, i32 } %19, 1
  store i32 %21, ptr %9, align 4
  call void @_ZN5Yosys7hashlib4poolINSt7__cxx1112basic_stringIcSt11char_traitsIcESaIcEEENS0_8hash_opsIS7_EEED2Ev(ptr noundef nonnull align 8 dereferenceable(49) %7) #3
  call void @llvm.lifetime.end.p0(i64 56, ptr %7) #3
  br label %22

22:                                               ; preds = %18
  %23 = load ptr, ptr %8, align 8
  %24 = load i32, ptr %9, align 4
  %25 = insertvalue { ptr, i32 } poison, ptr %23, 0
  %26 = insertvalue { ptr, i32 } %25, i32 %24, 1
  resume { ptr, i32 } %26
}