; Function Attrs: mustprogress uwtable
define internal fastcc void @_ZN12_GLOBAL__N_111apply_attrsEPN5Yosys5RTLIL4CellEPKNS1_10SwitchRuleEPKNS1_8CaseRuleE(ptr noundef %0, ptr noundef %1, ptr noundef %2) unnamed_addr #5 personality ptr @__gxx_personality_v0 {
  %4 = alloca %"class.Yosys::hashlib::pool.308", align 8
  %5 = getelementptr inbounds nuw i8, ptr %1, i64 24
  %6 = getelementptr inbounds nuw i8, ptr %0, i64 24
  %7 = tail call noundef nonnull align 8 dereferenceable(24) ptr @_ZNSt6vectorIN5Yosys7hashlib4dictINS0_5RTLIL8IdStringENS3_5ConstENS1_8hash_opsIS4_EEE7entry_tESaIS9_EEaSERKSB_(ptr noundef nonnull align 8 dereferenceable(24) %6, ptr noundef nonnull align 8 dereferenceable(24) %5)
  tail call void @_ZN5Yosys7hashlib4dictINS_5RTLIL8IdStringENS2_5ConstENS0_8hash_opsIS3_EEE9do_rehashEv(ptr noundef nonnull align 8 dereferenceable(49) %0)
  call void @llvm.lifetime.start.p0(i64 56, ptr nonnull %4) #25
  call void @_ZNK5Yosys5RTLIL10AttrObject21get_strpool_attributeB5cxx11ERKNS0_8IdStringE(ptr dead_on_unwind nonnull writable sret(%"class.Yosys::hashlib::pool.308") align 8 %4, ptr noundef nonnull align 8 dereferenceable(56) %2, ptr noundef nonnull align 4 dereferenceable(4) @_ZN5Yosys5RTLIL2ID3srcE)
  invoke void @_ZN5Yosys5RTLIL10AttrObject21add_strpool_attributeERKNS0_8IdStringERKNS_7hashlib4poolINSt7__cxx1112basic_stringIcSt11char_traitsIcESaIcEEENS5_8hash_opsISC_EEEE(ptr noundef nonnull align 8 dereferenceable(56) %0, ptr noundef nonnull align 4 dereferenceable(4) @_ZN5Yosys5RTLIL2ID3srcE, ptr noundef nonnull align 8 dereferenceable(49) %4)
          to label %8 unwind label %36

8:                                                ; preds = %3
  %9 = getelementptr inbounds nuw i8, ptr %4, i64 24
  %10 = load ptr, ptr %9, align 8, !tbaa !295
  %11 = getelementptr inbounds nuw i8, ptr %4, i64 32
  %12 = load ptr, ptr %11, align 8, !tbaa !298
  %.not4.i.i.i.i.i = icmp eq ptr %10, %12
  br i1 %.not4.i.i.i.i.i, label %_ZSt8_DestroyIPN5Yosys7hashlib4poolINSt7__cxx1112basic_stringIcSt11char_traitsIcESaIcEEENS1_8hash_opsIS8_EEE7entry_tESC_EvT_SE_RSaIT0_E.exit.i.i, label %.lr.ph.i.i.i.i.i

.lr.ph.i.i.i.i.i:                                 ; preds = %8, %_ZSt8_DestroyIN5Yosys7hashlib4poolINSt7__cxx1112basic_stringIcSt11char_traitsIcESaIcEEENS1_8hash_opsIS8_EEE7entry_tEEvPT_.exit.i.i.i.i.i
  %.05.i.i.i.i.i = phi ptr [ %21, %_ZSt8_DestroyIN5Yosys7hashlib4poolINSt7__cxx1112basic_stringIcSt11char_traitsIcESaIcEEENS1_8hash_opsIS8_EEE7entry_tEEvPT_.exit.i.i.i.i.i ], [ %10, %8 ]
  %13 = load ptr, ptr %.05.i.i.i.i.i, align 8, !tbaa !17
  %14 = getelementptr inbounds nuw i8, ptr %.05.i.i.i.i.i, i64 16
  %15 = icmp eq ptr %13, %14
  br i1 %15, label %_ZNKSt7__cxx1112basic_stringIcSt11char_traitsIcESaIcEE11_M_is_localEv.exit.thread.i.i.i.i.i.i.i.i.i, label %_ZNKSt7__cxx1112basic_stringIcSt11char_traitsIcESaIcEE11_M_is_localEv.exit.i.i.i.i.i.i.i.i.i

_ZNKSt7__cxx1112basic_stringIcSt11char_traitsIcESaIcEE11_M_is_localEv.exit.thread.i.i.i.i.i.i.i.i.i: ; preds = %.lr.ph.i.i.i.i.i
  %16 = getelementptr inbounds nuw i8, ptr %.05.i.i.i.i.i, i64 8
  %17 = load i64, ptr %16, align 8, !tbaa !22
  %18 = icmp ult i64 %17, 16
  call void @llvm.assume(i1 %18)
  br label %_ZSt8_DestroyIN5Yosys7hashlib4poolINSt7__cxx1112basic_stringIcSt11char_traitsIcESaIcEEENS1_8hash_opsIS8_EEE7entry_tEEvPT_.exit.i.i.i.i.i

_ZNKSt7__cxx1112basic_stringIcSt11char_traitsIcESaIcEE11_M_is_localEv.exit.i.i.i.i.i.i.i.i.i: ; preds = %.lr.ph.i.i.i.i.i
  %19 = load i64, ptr %14, align 8, !tbaa !23
  %20 = add i64 %19, 1
  call void @_ZdlPvm(ptr noundef %13, i64 noundef %20) #26
  br label %_ZSt8_DestroyIN5Yosys7hashlib4poolINSt7__cxx1112basic_stringIcSt11char_traitsIcESaIcEEENS1_8hash_opsIS8_EEE7entry_tEEvPT_.exit.i.i.i.i.i

_ZSt8_DestroyIN5Yosys7hashlib4poolINSt7__cxx1112basic_stringIcSt11char_traitsIcESaIcEEENS1_8hash_opsIS8_EEE7entry_tEEvPT_.exit.i.i.i.i.i: ; preds = %_ZNKSt7__cxx1112basic_stringIcSt11char_traitsIcESaIcEE11_M_is_localEv.exit.i.i.i.i.i.i.i.i.i, %_ZNKSt7__cxx1112basic_stringIcSt11char_traitsIcESaIcEE11_M_is_localEv.exit.thread.i.i.i.i.i.i.i.i.i
  %21 = getelementptr inbounds nuw i8, ptr %.05.i.i.i.i.i, i64 40
  %.not.i.i.i.i.i = icmp eq ptr %21, %12
  br i1 %.not.i.i.i.i.i, label %_ZSt8_DestroyIPN5Yosys7hashlib4poolINSt7__cxx1112basic_stringIcSt11char_traitsIcESaIcEEENS1_8hash_opsIS8_EEE7entry_tESC_EvT_SE_RSaIT0_E.exitthread-pre-split.i.i, label %.lr.ph.i.i.i.i.i, !llvm.loop !299

_ZSt8_DestroyIPN5Yosys7hashlib4poolINSt7__cxx1112basic_stringIcSt11char_traitsIcESaIcEEENS1_8hash_opsIS8_EEE7entry_tESC_EvT_SE_RSaIT0_E.exitthread-pre-split.i.i: ; preds = %_ZSt8_DestroyIN5Yosys7hashlib4poolINSt7__cxx1112basic_stringIcSt11char_traitsIcESaIcEEENS1_8hash_opsIS8_EEE7entry_tEEvPT_.exit.i.i.i.i.i
  %.pr.i.i = load ptr, ptr %9, align 8, !tbaa !295
  br label %_ZSt8_DestroyIPN5Yosys7hashlib4poolINSt7__cxx1112basic_stringIcSt11char_traitsIcESaIcEEENS1_8hash_opsIS8_EEE7entry_tESC_EvT_SE_RSaIT0_E.exit.i.i

_ZSt8_DestroyIPN5Yosys7hashlib4poolINSt7__cxx1112basic_stringIcSt11char_traitsIcESaIcEEENS1_8hash_opsIS8_EEE7entry_tESC_EvT_SE_RSaIT0_E.exit.i.i: ; preds = %_ZSt8_DestroyIPN5Yosys7hashlib4poolINSt7__cxx1112basic_stringIcSt11char_traitsIcESaIcEEENS1_8hash_opsIS8_EEE7entry_tESC_EvT_SE_RSaIT0_E.exitthread-pre-split.i.i, %8
  %22 = phi ptr [ %.pr.i.i, %_ZSt8_DestroyIPN5Yosys7hashlib4poolINSt7__cxx1112basic_stringIcSt11char_traitsIcESaIcEEENS1_8hash_opsIS8_EEE7entry_tESC_EvT_SE_RSaIT0_E.exitthread-pre-split.i.i ], [ %10, %8 ]
  %.not.i.i.i.i = icmp eq ptr %22, null
  br i1 %.not.i.i.i.i, label %_ZNSt6vectorIN5Yosys7hashlib4poolINSt7__cxx1112basic_stringIcSt11char_traitsIcESaIcEEENS1_8hash_opsIS8_EEE7entry_tESaISC_EED2Ev.exit.i, label %23

23:                                               ; preds = %_ZSt8_DestroyIPN5Yosys7hashlib4poolINSt7__cxx1112basic_stringIcSt11char_traitsIcESaIcEEENS1_8hash_opsIS8_EEE7entry_tESC_EvT_SE_RSaIT0_E.exit.i.i
  %24 = getelementptr inbounds nuw i8, ptr %4, i64 40
  %25 = load ptr, ptr %24, align 8, !tbaa !300
  %26 = ptrtoint ptr %25 to i64
  %27 = ptrtoint ptr %22 to i64
  %28 = sub i64 %26, %27
  call void @_ZdlPvm(ptr noundef nonnull %22, i64 noundef %28) #26
  br label %_ZNSt6vectorIN5Yosys7hashlib4poolINSt7__cxx1112basic_stringIcSt11char_traitsIcESaIcEEENS1_8hash_opsIS8_EEE7entry_tESaISC_EED2Ev.exit.i

_ZNSt6vectorIN5Yosys7hashlib4poolINSt7__cxx1112basic_stringIcSt11char_traitsIcESaIcEEENS1_8hash_opsIS8_EEE7entry_tESaISC_EED2Ev.exit.i: ; preds = %23, %_ZSt8_DestroyIPN5Yosys7hashlib4poolINSt7__cxx1112basic_stringIcSt11char_traitsIcESaIcEEENS1_8hash_opsIS8_EEE7entry_tESC_EvT_SE_RSaIT0_E.exit.i.i
  %29 = load ptr, ptr %4, align 8, !tbaa !85
  %.not.i.i.i1.i = icmp eq ptr %29, null
  br i1 %.not.i.i.i1.i, label %_ZN5Yosys7hashlib4poolINSt7__cxx1112basic_stringIcSt11char_traitsIcESaIcEEENS0_8hash_opsIS7_EEED2Ev.exit, label %30

30:                                               ; preds = %_ZNSt6vectorIN5Yosys7hashlib4poolINSt7__cxx1112basic_stringIcSt11char_traitsIcESaIcEEENS1_8hash_opsIS8_EEE7entry_tESaISC_EED2Ev.exit.i
  %31 = getelementptr inbounds nuw i8, ptr %4, i64 16
  %32 = load ptr, ptr %31, align 8, !tbaa !86
  %33 = ptrtoint ptr %32 to i64
  %34 = ptrtoint ptr %29 to i64
  %35 = sub i64 %33, %34
  call void @_ZdlPvm(ptr noundef nonnull %29, i64 noundef %35) #26
  br label %_ZN5Yosys7hashlib4poolINSt7__cxx1112basic_stringIcSt11char_traitsIcESaIcEEENS0_8hash_opsIS7_EEED2Ev.exit

_ZN5Yosys7hashlib4poolINSt7__cxx1112basic_stringIcSt11char_traitsIcESaIcEEENS0_8hash_opsIS7_EEED2Ev.exit: ; preds = %_ZNSt6vectorIN5Yosys7hashlib4poolINSt7__cxx1112basic_stringIcSt11char_traitsIcESaIcEEENS1_8hash_opsIS8_EEE7entry_tESaISC_EED2Ev.exit.i, %30
  call void @llvm.lifetime.end.p0(i64 56, ptr nonnull %4) #25
  ret void

36:                                               ; preds = %3
  %37 = landingpad { ptr, i32 }
          cleanup
  call void @_ZN5Yosys7hashlib4poolINSt7__cxx1112basic_stringIcSt11char_traitsIcESaIcEEENS0_8hash_opsIS7_EEED2Ev(ptr noundef nonnull align 8 dereferenceable(49) %4) #25
  call void @llvm.lifetime.end.p0(i64 56, ptr nonnull %4) #25
  resume { ptr, i32 } %37
}